target datalayout = "e-m:e-p270:32:32-p271:32:32-p272:64:64-i64:64-i128:128-f80:128-n8:16:32:64-S128"
target triple = "x86_64-pc-linux-gnu"

%"class.clang::DiagnosticBuilder" = type <{ %"class.clang::StreamingDiagnostic", ptr, i8, i8, [6 x i8] }>
%"class.clang::StreamingDiagnostic" = type { ptr, ptr }

; Function Attrs: mustprogress nounwind uwtable
define internal void @_ZL16LLVMErrorHandlerPvPKcb(ptr noundef %0, ptr noundef %1, i1 noundef zeroext %2) #0 {
  %4 = alloca ptr, align 8
  %5 = alloca ptr, align 8
  %6 = alloca i8, align 1
  %7 = alloca ptr, align 8
  %8 = alloca %"class.clang::DiagnosticBuilder", align 8
  store ptr %0, ptr %4, align 8
  store ptr %1, ptr %5, align 8
  %9 = zext i1 %2 to i8
  store i8 %9, ptr %6, align 1
  %10 = load ptr, ptr %4, align 8
  store ptr %10, ptr %7, align 8
  %11 = load ptr, ptr %7, align 8
  call void @_ZN5clang17DiagnosticsEngine6ReportEj(ptr dead_on_unwind writable sret(%"class.clang::DiagnosticBuilder") align 8 %8, ptr noundef nonnull align 8 dereferenceable(1304) %11, i32 noundef 716)
  %12 = call noundef nonnull align 8 dereferenceable(26) ptr @_ZNK5clang17DiagnosticBuilderlsIPKcEERKS0_RKT_(ptr noundef nonnull align 8 dereferenceable(26) %8, ptr noundef nonnull align 8 dereferenceable(8) %5)
  call void @_ZN5clang17DiagnosticBuilderD2Ev(ptr noundef nonnull align 8 dereferenceable(26) %8) #12
  call void @_ZN4llvm3sys7Process4ExitEib(i32 noundef 1, i1 noundef zeroext false) #13
  unreachable
}