; Function Attrs: mustprogress noreturn nounwind uwtable
define internal void @_ZL16LLVMErrorHandlerPvPKcb(ptr noundef nonnull %0, ptr noundef %1, i1 zeroext %2) #4 {
  %4 = alloca ptr, align 8
  %5 = alloca %"class.clang::DiagnosticBuilder", align 8
  store ptr %1, ptr %4, align 8
  call void @_ZN5clang17DiagnosticsEngine6ReportEj(ptr dead_on_unwind nonnull writable sret(%"class.clang::DiagnosticBuilder") align 8 %5, ptr noundef nonnull align 8 dereferenceable(1304) %0, i32 noundef 716)
  %6 = call noundef nonnull align 8 dereferenceable(26) ptr @_ZNK5clang17DiagnosticBuilderlsIPKcEERKS0_RKT_(ptr noundef nonnull align 8 dereferenceable(26) %5, ptr noundef nonnull align 8 dereferenceable(8) %4)
  call void @_ZN5clang17DiagnosticBuilderD2Ev(ptr noundef nonnull align 8 dereferenceable(26) %5) #17
  call void @_ZN4llvm3sys7Process4ExitEib(i32 noundef 1, i1 noundef zeroext false) #20
  unreachable
}